Certificate:
    Data:
        Version: 3 (0x2)
        Serial Number:
            29:9d:22:f7:16:f7:8c:b4:5e:01:6a:e8:93:25:56:83:de:05:dd:a7
        Signature Algorithm: sha256WithRSAEncryption
        Issuer: CN=localhost
        Validity
            Not Before: May 18 13:24:46 2024 GMT
            Not After : Apr 24 13:24:46 2124 GMT
        Subject: CN=localhost
        Subject Public Key Info:
            Public Key Algorithm: rsaEncryption
                Public-Key: (2048 bit)
                Modulus:
                    00:e8:58:28:0b:18:02:10:bf:77:e8:9a:25:80:2f:
                    23:f9:84:0c:0c:aa:24:d6:fc:09:96:2d:81:fd:09:
                    1f:07:16:7f:55:48:9e:f4:38:17:d6:8d:11:c6:2c:
                    3d:7c:c9:27:5a:b7:df:af:4e:cf:fb:6a:a0:6d:df:
                    3d:40:83:59:d9:12:bc:61:a8:10:ba:12:f8:45:9c:
                    84:67:49:32:e5:f0:5f:fc:cc:00:7e:08:74:96:7d:
                    55:19:a4:79:76:4b:42:c3:b1:6a:54:f2:dc:ff:5e:
                    22:d1:25:ed:12:d1:e6:a1:15:6a:5c:7c:ab:71:b6:
                    45:88:c3:ce:65:d4:cc:fa:c2:ce:7a:a2:5b:08:83:
                    15:1b:c4:ce:92:c2:f3:96:a0:ca:8b:d6:4c:92:54:
                    10:e4:e9:b1:16:03:5e:e9:4f:8b:8a:d5:9d:3d:c6:
                    68:9f:da:bf:12:b5:3b:dc:0e:ba:2d:cd:40:a4:4c:
                    82:81:eb:1f:0b:7f:e4:be:88:9e:be:ee:74:79:24:
                    ab:05:5a:69:a8:5e:1f:a9:06:e9:7a:be:28:02:cd:
                    fe:66:f0:e7:fa:2c:f7:60:29:57:43:bf:3b:6f:f1:
                    3b:be:40:6d:51:c6:69:e3:3f:e1:26:a0:04:d3:ed:
                    25:f2:85:09:c0:36:3b:a0:a0:16:f3:ae:73:26:bb:
                    75:27
                Exponent: 65537 (0x10001)
        X509v3 extensions:
            X509v3 Subject Alternative Name: 
                DNS:localhost
            X509v3 Subject Key Identifier: 
                BE:9C:C9:39:A1:43:F6:9A:89:B7:EF:B9:E6:85:BC:31:EA:2E:DF:58
    Signature Algorithm: sha256WithRSAEncryption
    Signature Value:
        66:d9:d2:c6:a1:40:58:49:ae:f4:83:a9:98:cb:52:ca:8a:8d:
        69:1b:4b:bc:c0:44:7b:4c:fb:fb:71:75:25:4b:4a:74:8a:da:
        0f:f9:fc:d7:86:9e:6e:61:1b:16:d9:d7:1c:3d:2f:13:a0:9c:
        3b:46:c9:b2:5b:00:62:62:3a:70:75:37:ff:0f:da:ff:a6:b0:
        fe:bd:d3:48:37:b9:40:a1:df:ec:b4:35:2a:05:18:1e:6c:30:
        ae:10:50:2a:59:d3:69:53:6d:4a:58:5c:26:92:8d:08:4a:f7:
        1e:af:ea:ae:06:be:52:e8:a2:69:df:95:22:a2:14:c4:7b:a7:
        6a:42:48:b1:03:00:4e:70:87:6c:0b:c7:c6:bb:73:16:9d:52:
        ef:97:a8:c0:01:cb:e3:4f:e0:63:c5:71:08:44:11:08:3b:cc:
        e7:73:50:2d:84:8e:5f:16:8b:76:1c:46:2e:c2:6e:84:91:52:
        97:e2:13:b0:44:27:ed:9b:e2:a0:2a:c8:be:ce:64:7e:66:6b:
        e9:7f:46:9d:fe:de:3b:9f:55:2f:30:5e:fb:78:5a:a1:ad:8b:
        c5:ce:81:49:69:87:16:96:1a:03:d6:f0:5a:99:82:64:00:d3:
        3e:6f:79:dd:b5:d5:9f:1c:98:77:ec:15:d2:33:ab:e0:2b:a9:
        5d:08:83:21
-----BEGIN CERTIFICATE-----
MIIC7zCCAdegAwIBAgIUKZ0i9xb3jLReAWrokyVWg94F3acwDQYJKoZIhvcNAQEL
BQAwFDESMBAGA1UEAwwJbG9jYWxob3N0MCAXDTI0MDUxODEzMjQ0NloYDzIxMjQw
NDI0MTMyNDQ2WjAUMRIwEAYDVQQDDAlsb2NhbGhvc3QwggEiMA0GCSqGSIb3DQEB
AQUAA4IBDwAwggEKAoIBAQDoWCgLGAIQv3fomiWALyP5hAwMqiTW/AmWLYH9CR8H
Fn9VSJ70OBfWjRHGLD18ySdat9+vTs/7aqBt3z1Ag1nZErxhqBC6EvhFnIRnSTLl
8F/8zAB+CHSWfVUZpHl2S0LDsWpU8tz/XiLRJe0S0eahFWpcfKtxtkWIw85l1Mz6
ws56olsIgxUbxM6SwvOWoMqL1kySVBDk6bEWA17pT4uK1Z09xmif2r8StTvcDrot
zUCkTIKB6x8Lf+S+iJ6+7nR5JKsFWmmoXh+pBul6vigCzf5m8Of6LPdgKVdDvztv
8Tu+QG1RxmnjP+EmoATT7SXyhQnANjugoBbzrnMmu3UnAgMBAAGjNzA1MBQGA1Ud
EQQNMAuCCWxvY2FsaG9zdDAdBgNVHQ4EFgQUvpzJOaFD9pqJt++55oW8Meou31gw
DQYJKoZIhvcNAQELBQADggEBAGbZ0sahQFhJrvSDqZjLUsqKjWkbS7zARHtM+/tx
dSVLSnSK2g/5/NeGnm5hGxbZ1xw9LxOgnDtGybJbAGJiOnB1N/8P2v+msP6900g3
uUCh3+y0NSoFGB5sMK4QUCpZ02lTbUpYXCaSjQhK9x6v6q4GvlLoomnflSKiFMR7
p2pCSLEDAE5wh2wLx8a7cxadUu+XqMABy+NP4GPFcQhEEQg7zOdzUC2Ejl8Wi3Yc
Ri7CboSRUpfiE7BEJ+2b4qAqyL7OZH5ma+l/Rp3+3jufVS8wXvt4WqGti8XOgUlp
hxaWGgPW8FqZgmQA0z5ved211Z8cmHfsFdIzq+ArqV0IgyE=
-----END CERTIFICATE-----
