Certificate:
    Data:
        Version: 3 (0x2)
        Serial Number:
            5c:ce:95:de:d9:f1:e7:17:71:0b:ba:4e:f4:83:01:44:9a:e9:1f:a5
        Signature Algorithm: sha256WithRSAEncryption
        Issuer: CN=dbhost.yourdomain.com
        Validity
            Not Before: May 11 00:39:40 2024 GMT
            Not After : May 11 00:39:40 2025 GMT
        Subject: CN=dbhost.yourdomain.com
        Subject Public Key Info:
            Public Key Algorithm: rsaEncryption
                Public-Key: (2048 bit)
                Modulus:
                    00:a6:eb:71:dc:98:6a:22:52:f4:ae:de:b8:5e:db:
                    2e:3a:01:b4:27:db:ea:bc:5c:25:3a:cf:cf:73:7e:
                    dd:8f:c8:2e:56:49:f6:96:ed:b2:3b:8d:85:1d:84:
                    3e:20:7e:67:80:7e:0e:75:38:ba:23:55:ee:1d:34:
                    af:60:c0:eb:7d:ff:25:8e:97:5a:c5:47:01:95:5a:
                    f2:20:c3:0a:99:c2:67:d1:ff:b8:2d:aa:54:41:60:
                    b0:c3:e2:1d:a9:0e:e1:29:6b:86:7e:c8:8b:28:26:
                    35:79:50:29:4e:4d:86:fd:72:9a:a9:85:81:68:da:
                    c2:7b:ed:6b:05:21:fa:d1:8a:57:10:d4:ba:bb:f7:
                    d2:ec:60:23:ce:84:d5:08:c5:26:ea:d7:64:c1:7a:
                    df:fe:52:cc:48:bf:03:4e:20:a9:51:b6:b3:d8:8f:
                    0f:b2:ad:e8:9f:d1:97:74:42:b0:76:64:8c:0b:d1:
                    68:bd:62:57:69:e4:f3:c3:ab:94:9a:42:75:3b:dd:
                    97:7d:1e:87:d9:e2:c0:4d:bd:cb:3e:00:43:7a:e1:
                    6f:42:65:4d:99:af:0c:c0:98:90:48:6f:cc:81:9f:
                    1b:81:2b:7f:c1:18:ac:f8:02:8f:01:ea:ee:20:55:
                    18:c5:2e:78:93:86:1e:42:99:78:70:5c:53:f7:ba:
                    81:53
                Exponent: 65537 (0x10001)
        X509v3 extensions:
            X509v3 Subject Key Identifier: 
                9E:88:25:64:1B:27:19:9D:79:78:68:24:82:E1:AF:81:61:4F:99:C8
            X509v3 Authority Key Identifier: 
                9E:88:25:64:1B:27:19:9D:79:78:68:24:82:E1:AF:81:61:4F:99:C8
            X509v3 Basic Constraints: critical
                CA:TRUE
    Signature Algorithm: sha256WithRSAEncryption
    Signature Value:
        8e:03:29:f1:d4:d2:ea:84:63:5e:ea:65:58:f9:f6:db:02:fd:
        b5:01:a6:a6:ba:60:42:e7:c5:12:ff:8a:24:32:89:e3:27:91:
        83:88:4c:dd:41:f9:1c:e8:da:ef:b0:37:cc:a9:8f:3e:6c:e9:
        6b:62:f5:84:3f:df:dd:f9:70:2f:b1:90:dd:e3:35:d0:5a:df:
        44:66:05:1a:b9:39:8d:8b:2d:6c:17:77:f2:ee:5c:20:e8:08:
        41:a4:70:5b:5c:34:dc:4d:4e:b0:b6:89:0b:78:37:91:08:48:
        1d:e9:1a:e0:dc:14:91:d4:05:ab:41:c9:f9:4c:ec:5f:f4:d7:
        7b:64:3f:00:b7:98:41:39:0e:b0:dc:0f:d6:8e:94:27:44:b5:
        2c:53:80:9f:0a:c5:3d:75:08:51:c9:8c:28:fc:5f:9b:34:41:
        04:8c:3f:e0:37:f8:9d:a1:9e:84:89:5c:76:4a:29:95:00:8d:
        15:84:bd:4a:f5:6b:6c:65:5a:6b:73:2b:4e:17:78:52:29:18:
        91:4f:c5:b7:14:f0:9d:63:37:d8:f9:4c:0a:fa:72:32:67:72:
        4a:23:1e:8b:19:be:9d:d7:eb:2c:9d:f4:0f:30:a4:10:fc:ec:
        c0:61:a0:7e:3f:53:9f:f6:9d:82:f9:d9:10:66:15:b2:3e:36:
        53:aa:1d:c4
-----BEGIN CERTIFICATE-----
MIIDITCCAgmgAwIBAgIUXM6V3tnx5xdxC7pO9IMBRJrpH6UwDQYJKoZIhvcNAQEL
BQAwIDEeMBwGA1UEAwwVZGJob3N0LnlvdXJkb21haW4uY29tMB4XDTI0MDUxMTAw
Mzk0MFoXDTI1MDUxMTAwMzk0MFowIDEeMBwGA1UEAwwVZGJob3N0LnlvdXJkb21h
aW4uY29tMIIBIjANBgkqhkiG9w0BAQEFAAOCAQ8AMIIBCgKCAQEAputx3JhqIlL0
rt64XtsuOgG0J9vqvFwlOs/Pc37dj8guVkn2lu2yO42FHYQ+IH5ngH4OdTi6I1Xu
HTSvYMDrff8ljpdaxUcBlVryIMMKmcJn0f+4LapUQWCww+IdqQ7hKWuGfsiLKCY1
eVApTk2G/XKaqYWBaNrCe+1rBSH60YpXENS6u/fS7GAjzoTVCMUm6tdkwXrf/lLM
SL8DTiCpUbaz2I8Psq3on9GXdEKwdmSMC9FovWJXaeTzw6uUmkJ1O92XfR6H2eLA
Tb3LPgBDeuFvQmVNma8MwJiQSG/MgZ8bgSt/wRis+AKPAeruIFUYxS54k4YeQpl4
cFxT97qBUwIDAQABo1MwUTAdBgNVHQ4EFgQUnoglZBsnGZ15eGgkguGvgWFPmcgw
HwYDVR0jBBgwFoAUnoglZBsnGZ15eGgkguGvgWFPmcgwDwYDVR0TAQH/BAUwAwEB
/zANBgkqhkiG9w0BAQsFAAOCAQEAjgMp8dTS6oRjXuplWPn22wL9tQGmprpgQufF
Ev+KJDKJ4yeRg4hM3UH5HOja77A3zKmPPmzpa2L1hD/f3flwL7GQ3eM10FrfRGYF
Grk5jYstbBd38u5cIOgIQaRwW1w03E1OsLaJC3g3kQhIHeka4NwUkdQFq0HJ+Uzs
X/TXe2Q/ALeYQTkOsNwP1o6UJ0S1LFOAnwrFPXUIUcmMKPxfmzRBBIw/4Df4naGe
hIlcdkoplQCNFYS9SvVrbGVaa3MrThd4UikYkU/FtxTwnWM32PlMCvpyMmdySiMe
ixm+ndfrLJ30DzCkEPzswGGgfj9Tn/adgvnZEGYVsj42U6odxA==
-----END CERTIFICATE-----
