Certificate:
    Data:
        Version: 3 (0x2)
        Serial Number:
            60:bf:4b:36:25:03:94:fe:fb:d9:63:aa:b5:c8:73:64:f0:d7:50:28
        Signature Algorithm: sha256WithRSAEncryption
        Issuer: CN=dbhost.yourdomain.com
        Validity
            Not Before: May 11 13:46:41 2024 GMT
            Not After : May 11 13:46:41 2025 GMT
        Subject: CN=dbhost.yourdomain.com
        Subject Public Key Info:
            Public Key Algorithm: rsaEncryption
                Public-Key: (2048 bit)
                Modulus:
                    00:b0:d6:e5:8d:65:ac:fa:69:04:a0:45:6a:71:46:
                    5c:0b:bf:69:97:6a:b7:b7:20:fc:41:96:0c:7d:ac:
                    25:94:9a:bc:8c:6e:9c:8a:48:4a:99:98:34:3c:ff:
                    bd:b3:1c:30:8e:9f:85:12:36:b3:25:61:ae:f2:40:
                    92:8b:81:c0:72:d9:99:cf:f7:e1:ef:01:dd:9d:51:
                    8c:2c:48:96:2a:99:95:a7:b5:cc:ca:f4:4e:79:9d:
                    9b:4a:d4:34:5c:b2:45:66:75:05:bf:96:6f:b4:4f:
                    33:de:55:0b:d6:56:8b:a8:23:a3:93:b0:83:c2:63:
                    21:1b:cf:07:a6:a8:60:91:4b:e3:cb:28:35:c6:2f:
                    d2:d9:38:45:6d:df:f8:74:60:1f:79:6e:31:73:36:
                    fc:f4:30:dd:fe:c3:04:f6:73:30:a9:91:38:7c:c4:
                    95:b2:99:5b:38:53:9c:8d:3d:07:77:d6:66:53:50:
                    51:a8:c7:3f:41:2e:72:af:87:77:f7:7c:ce:94:10:
                    f4:4c:76:1f:14:34:55:f9:13:4e:d3:0a:a8:84:64:
                    9f:08:55:59:7f:bc:e1:46:3f:0f:0f:cf:54:96:2e:
                    4f:a3:0f:c9:5e:ea:b6:b6:55:89:0f:83:83:1b:f0:
                    f5:e4:8b:60:18:e3:80:c6:19:ae:19:55:e2:af:1e:
                    9d:97
                Exponent: 65537 (0x10001)
        X509v3 extensions:
            X509v3 Subject Key Identifier: 
                78:0D:5F:52:9C:22:6C:9C:91:27:5D:1E:C9:9F:22:02:B5:EC:9E:87
            X509v3 Authority Key Identifier: 
                78:0D:5F:52:9C:22:6C:9C:91:27:5D:1E:C9:9F:22:02:B5:EC:9E:87
            X509v3 Basic Constraints: critical
                CA:TRUE
    Signature Algorithm: sha256WithRSAEncryption
    Signature Value:
        23:fd:54:a1:84:32:12:2b:c8:aa:23:b2:6b:f0:05:f6:12:2b:
        e8:92:66:b5:27:19:b9:30:22:28:2e:4d:75:20:c6:c8:59:99:
        cb:d7:73:3c:60:2a:fb:77:80:70:77:ca:2d:f5:46:54:0a:73:
        8a:39:91:84:22:29:05:e6:18:91:ba:c4:77:01:68:24:d2:0e:
        b2:12:d7:de:75:b3:ca:f2:ce:97:c4:13:fb:57:9e:90:f9:5e:
        1f:84:ac:32:b5:90:b4:70:f9:3a:79:57:fb:f5:58:f3:b0:21:
        94:83:05:bc:5a:f2:ac:fc:ae:14:53:d2:f3:79:aa:15:7e:1f:
        03:97:3c:82:ce:64:ff:a4:01:9e:b9:5b:24:4d:35:87:ff:b5:
        e5:82:66:99:ea:ef:32:d2:94:ec:cf:c7:ca:92:c9:14:d6:56:
        1b:49:15:e1:38:43:84:2e:7c:da:58:24:2a:7a:d5:51:91:35:
        65:a4:5a:2c:31:27:09:ea:77:9a:f4:ef:f7:1b:90:b9:51:91:
        12:e8:0b:aa:f1:e5:0d:fd:f2:db:93:60:15:cb:a2:2f:2d:40:
        ec:8d:12:d4:d8:7c:57:d6:a6:48:ad:9c:da:ba:a2:4b:36:99:
        1c:e9:33:19:a7:0f:60:23:65:01:c3:5e:31:4d:91:d9:79:a8:
        1f:8d:74:cd
-----BEGIN CERTIFICATE-----
MIIDITCCAgmgAwIBAgIUYL9LNiUDlP772WOqtchzZPDXUCgwDQYJKoZIhvcNAQEL
BQAwIDEeMBwGA1UEAwwVZGJob3N0LnlvdXJkb21haW4uY29tMB4XDTI0MDUxMTEz
NDY0MVoXDTI1MDUxMTEzNDY0MVowIDEeMBwGA1UEAwwVZGJob3N0LnlvdXJkb21h
aW4uY29tMIIBIjANBgkqhkiG9w0BAQEFAAOCAQ8AMIIBCgKCAQEAsNbljWWs+mkE
oEVqcUZcC79pl2q3tyD8QZYMfawllJq8jG6cikhKmZg0PP+9sxwwjp+FEjazJWGu
8kCSi4HActmZz/fh7wHdnVGMLEiWKpmVp7XMyvROeZ2bStQ0XLJFZnUFv5ZvtE8z
3lUL1laLqCOjk7CDwmMhG88HpqhgkUvjyyg1xi/S2ThFbd/4dGAfeW4xczb89DDd
/sME9nMwqZE4fMSVsplbOFOcjT0Hd9ZmU1BRqMc/QS5yr4d393zOlBD0THYfFDRV
+RNO0wqohGSfCFVZf7zhRj8PD89Uli5Pow/JXuq2tlWJD4ODG/D15ItgGOOAxhmu
GVXirx6dlwIDAQABo1MwUTAdBgNVHQ4EFgQUeA1fUpwibJyRJ10eyZ8iArXsnocw
HwYDVR0jBBgwFoAUeA1fUpwibJyRJ10eyZ8iArXsnocwDwYDVR0TAQH/BAUwAwEB
/zANBgkqhkiG9w0BAQsFAAOCAQEAI/1UoYQyEivIqiOya/AF9hIr6JJmtScZuTAi
KC5NdSDGyFmZy9dzPGAq+3eAcHfKLfVGVApzijmRhCIpBeYYkbrEdwFoJNIOshLX
3nWzyvLOl8QT+1eekPleH4SsMrWQtHD5OnlX+/VY87AhlIMFvFryrPyuFFPS83mq
FX4fA5c8gs5k/6QBnrlbJE01h/+15YJmmervMtKU7M/HypLJFNZWG0kV4ThDhC58
2lgkKnrVUZE1ZaRaLDEnCep3mvTv9xuQuVGREugLqvHlDf3y25NgFcuiLy1A7I0S
1Nh8V9amSK2c2rqiSzaZHOkzGacPYCNlAcNeMU2R2XmoH410zQ==
-----END CERTIFICATE-----
