Certificate:
    Data:
        Version: 3 (0x2)
        Serial Number:
            5d:1f:61:a1:dd:da:2f:2b:48:4d:68:26:07:cb:1a:3a:89:85:23:34
        Signature Algorithm: sha256WithRSAEncryption
        Issuer: CN=dbhost.yourdomain.com
        Validity
            Not Before: May 12 10:31:31 2024 GMT
            Not After : May 12 10:31:31 2025 GMT
        Subject: CN=dbhost.yourdomain.com
        Subject Public Key Info:
            Public Key Algorithm: rsaEncryption
                Public-Key: (2048 bit)
                Modulus:
                    00:b7:18:ba:35:1d:ce:c7:52:48:19:3d:77:8f:6f:
                    9c:be:03:fe:e7:07:5a:8c:8f:9f:9f:70:e7:1c:b2:
                    9e:21:3b:cd:12:f0:c5:25:d0:58:41:5c:ec:94:d0:
                    87:35:c4:3b:7f:22:6f:48:0b:3f:9d:21:82:21:dd:
                    7c:99:7b:61:8e:5d:01:15:52:41:3f:7f:3c:cd:ef:
                    aa:ee:fd:b7:db:6e:5b:e2:ac:83:38:76:72:28:89:
                    db:76:bd:61:a7:36:dd:9b:1d:c7:0b:1a:71:29:56:
                    06:e9:6a:9b:57:18:0f:7d:d5:04:70:62:57:a6:fd:
                    e8:18:d2:29:ba:aa:20:07:56:08:53:ff:ba:79:48:
                    6e:64:71:94:e5:26:a1:7b:2d:ee:9d:ca:bb:6f:0e:
                    47:56:c7:8d:44:4c:95:b1:a8:82:5d:3c:64:06:b4:
                    38:26:57:15:7c:f5:fa:7f:86:05:84:a2:a0:9c:29:
                    ec:7e:de:d5:4a:61:d4:6f:ba:1d:4a:52:eb:c6:96:
                    ce:8b:37:cf:a9:87:8b:64:93:38:30:6b:80:25:8f:
                    ee:db:a1:f6:40:b7:e1:c0:9e:23:7e:e8:9f:eb:5a:
                    2b:5d:79:a0:7b:71:2f:ff:24:7a:e9:48:82:1e:b7:
                    98:eb:a4:44:f3:3a:e2:98:42:de:16:61:4b:ad:2e:
                    07:25
                Exponent: 65537 (0x10001)
        X509v3 extensions:
            X509v3 Subject Key Identifier: 
                26:18:F9:3E:8E:88:B5:6F:83:30:22:49:7C:E5:CB:03:87:32:93:48
            X509v3 Authority Key Identifier: 
                26:18:F9:3E:8E:88:B5:6F:83:30:22:49:7C:E5:CB:03:87:32:93:48
            X509v3 Basic Constraints: critical
                CA:TRUE
    Signature Algorithm: sha256WithRSAEncryption
    Signature Value:
        5c:d5:82:7e:24:0f:45:03:2e:58:dc:e7:ee:45:73:9e:ab:4e:
        48:53:f7:bb:6b:41:91:58:a3:ab:5f:c0:95:c9:87:34:59:5c:
        70:23:a2:d9:85:fd:77:c9:0e:02:04:d0:0a:10:fd:6e:bb:70:
        a5:9a:c6:e8:10:d3:d3:b6:2f:d9:04:3a:bd:83:b3:d4:3a:77:
        b2:0c:96:c0:56:cb:8c:b3:77:f8:d0:3a:64:23:0c:7b:61:01:
        be:4d:ac:ce:16:08:46:8f:72:77:62:bd:c5:3e:3c:19:01:24:
        38:ba:93:7b:a6:fb:d0:3d:05:82:ba:09:f3:b2:91:a9:e8:9e:
        51:c3:5e:f9:27:10:00:10:5a:cf:5f:a2:88:d2:b2:a5:df:1b:
        ca:7a:77:1b:e6:9e:52:6e:4e:31:c4:9b:c0:6b:63:ab:0e:a4:
        d6:4d:72:c6:85:ae:2c:39:de:f3:a6:2d:27:55:ad:62:2f:99:
        c3:b4:5e:e0:fe:17:97:be:56:fe:f6:94:a3:f9:e1:56:59:4e:
        25:be:1c:22:7d:b1:20:c4:1a:10:09:51:ed:70:66:83:14:a4:
        fa:fa:89:92:c4:c8:54:d3:ec:37:c7:23:4f:2b:52:40:c7:20:
        e9:f6:ca:c0:87:29:f0:0f:0d:65:1f:54:fc:65:13:3c:b5:83:
        9e:aa:71:2a
-----BEGIN CERTIFICATE-----
MIIDITCCAgmgAwIBAgIUXR9hod3aLytITWgmB8saOomFIzQwDQYJKoZIhvcNAQEL
BQAwIDEeMBwGA1UEAwwVZGJob3N0LnlvdXJkb21haW4uY29tMB4XDTI0MDUxMjEw
MzEzMVoXDTI1MDUxMjEwMzEzMVowIDEeMBwGA1UEAwwVZGJob3N0LnlvdXJkb21h
aW4uY29tMIIBIjANBgkqhkiG9w0BAQEFAAOCAQ8AMIIBCgKCAQEAtxi6NR3Ox1JI
GT13j2+cvgP+5wdajI+fn3DnHLKeITvNEvDFJdBYQVzslNCHNcQ7fyJvSAs/nSGC
Id18mXthjl0BFVJBP388ze+q7v23225b4qyDOHZyKInbdr1hpzbdmx3HCxpxKVYG
6WqbVxgPfdUEcGJXpv3oGNIpuqogB1YIU/+6eUhuZHGU5Sahey3uncq7bw5HVseN
REyVsaiCXTxkBrQ4JlcVfPX6f4YFhKKgnCnsft7VSmHUb7odSlLrxpbOizfPqYeL
ZJM4MGuAJY/u26H2QLfhwJ4jfuif61orXXmge3Ev/yR66UiCHreY66RE8zrimELe
FmFLrS4HJQIDAQABo1MwUTAdBgNVHQ4EFgQUJhj5Po6ItW+DMCJJfOXLA4cyk0gw
HwYDVR0jBBgwFoAUJhj5Po6ItW+DMCJJfOXLA4cyk0gwDwYDVR0TAQH/BAUwAwEB
/zANBgkqhkiG9w0BAQsFAAOCAQEAXNWCfiQPRQMuWNzn7kVznqtOSFP3u2tBkVij
q1/AlcmHNFlccCOi2YX9d8kOAgTQChD9brtwpZrG6BDT07Yv2QQ6vYOz1Dp3sgyW
wFbLjLN3+NA6ZCMMe2EBvk2szhYIRo9yd2K9xT48GQEkOLqTe6b70D0FgroJ87KR
qeieUcNe+ScQABBaz1+iiNKypd8bynp3G+aeUm5OMcSbwGtjqw6k1k1yxoWuLDne
86YtJ1WtYi+Zw7Re4P4Xl75W/vaUo/nhVllOJb4cIn2xIMQaEAlR7XBmgxSk+vqJ
ksTIVNPsN8cjTytSQMcg6fbKwIcp8A8NZR9U/GUTPLWDnqpxKg==
-----END CERTIFICATE-----
