Certificate:
    Data:
        Version: 3 (0x2)
        Serial Number:
            71:63:a2:98:b9:34:92:4e:be:34:60:91:42:dc:e4:02:8d:22:d8:7d
        Signature Algorithm: sha256WithRSAEncryption
        Issuer: CN=localhost
        Validity
            Not Before: Mar  6 08:31:57 2025 GMT
            Not After : Feb 10 08:31:57 2125 GMT
        Subject: CN=localhost
        Subject Public Key Info:
            Public Key Algorithm: rsaEncryption
                Public-Key: (2048 bit)
                Modulus:
                    00:a4:8c:9a:a7:09:8d:55:c0:9f:ac:c8:aa:7c:83:
                    c4:08:7a:5c:0b:27:ae:67:c4:a8:a8:d5:15:64:64:
                    f5:eb:f1:1e:e1:3f:38:72:78:a4:fd:b9:45:e0:37:
                    66:c0:a4:9d:46:16:9e:37:74:c4:f1:89:81:c1:db:
                    7b:77:79:dc:b6:89:b1:40:07:56:64:b1:f2:ca:63:
                    8e:e0:9e:e4:be:73:58:15:c3:54:99:7c:c8:8b:37:
                    02:80:03:e7:26:44:e7:e6:41:25:46:8d:20:21:11:
                    0e:59:0a:ea:ea:57:4b:df:0e:af:c2:55:73:14:eb:
                    f4:b8:5b:fc:f0:13:7c:45:08:99:f8:95:ac:96:a3:
                    e8:70:89:67:df:f6:4b:39:ab:0a:00:d9:54:3e:0a:
                    0d:94:48:c8:05:0f:f0:fa:dd:ac:8a:0a:0c:05:d2:
                    7f:e8:ff:ba:07:2b:35:cc:7a:6b:0d:72:af:2f:6d:
                    7a:da:da:66:27:dc:66:e1:12:d1:d7:ee:ad:ed:55:
                    4e:87:49:cb:21:a0:45:c5:b4:8c:62:2f:14:85:90:
                    3e:ba:06:ae:d9:7f:3b:68:02:8f:96:68:bc:20:7f:
                    34:9b:01:b0:a3:58:07:d4:26:36:99:d4:9b:54:1e:
                    67:04:59:ce:0c:84:43:75:cf:63:91:08:42:78:5b:
                    82:cf
                Exponent: 65537 (0x10001)
        X509v3 extensions:
            X509v3 Subject Alternative Name: 
                DNS:localhost
            X509v3 Subject Key Identifier: 
                12:AE:D0:A6:ED:29:0D:A2:4A:18:91:6D:15:8C:18:1C:1D:66:AB:07
    Signature Algorithm: sha256WithRSAEncryption
    Signature Value:
        81:29:b2:91:dd:cf:db:14:37:5b:35:1a:ed:c9:df:99:1f:16:
        0e:de:74:c2:ba:fa:97:d9:68:02:be:57:e0:41:32:9e:c3:af:
        ac:da:4b:08:41:04:1a:0b:78:a5:d6:2b:0a:c7:c0:17:57:11:
        39:94:d1:46:25:05:05:91:7f:c4:03:f6:b5:a6:07:bf:60:77:
        93:dc:cf:93:0a:4a:94:0b:95:07:04:cd:b9:29:de:3a:fc:00:
        07:62:fd:9c:63:c1:09:e9:d9:90:21:97:5b:38:76:59:71:bb:
        1e:4b:a4:42:d1:5e:98:d8:2c:81:ad:ea:2b:7f:3f:a0:16:95:
        08:71:39:6b:38:b1:65:bb:97:a3:31:fa:20:69:24:0f:47:9d:
        80:fa:39:7d:6a:9e:6c:b2:f7:37:49:89:74:98:13:9a:25:6d:
        ac:a4:60:09:47:29:09:33:66:9c:42:a1:8e:4e:ca:55:da:b3:
        06:5b:fd:74:4d:35:80:63:b1:fe:6f:77:9d:3b:54:8b:cd:67:
        13:6b:26:50:df:1a:b6:08:5e:44:fe:16:9e:c0:db:56:46:7d:
        c0:c7:f8:01:e1:25:9f:a5:49:84:ca:a3:ca:ae:ba:bf:d7:69:
        2a:c1:69:38:0b:41:9c:ef:55:e1:db:bb:12:c3:bd:04:43:68:
        c5:b4:79:27
-----BEGIN CERTIFICATE-----
MIIC7zCCAdegAwIBAgIUcWOimLk0kk6+NGCRQtzkAo0i2H0wDQYJKoZIhvcNAQEL
BQAwFDESMBAGA1UEAwwJbG9jYWxob3N0MCAXDTI1MDMwNjA4MzE1N1oYDzIxMjUw
MjEwMDgzMTU3WjAUMRIwEAYDVQQDDAlsb2NhbGhvc3QwggEiMA0GCSqGSIb3DQEB
AQUAA4IBDwAwggEKAoIBAQCkjJqnCY1VwJ+syKp8g8QIelwLJ65nxKio1RVkZPXr
8R7hPzhyeKT9uUXgN2bApJ1GFp43dMTxiYHB23t3edy2ibFAB1ZksfLKY47gnuS+
c1gVw1SZfMiLNwKAA+cmROfmQSVGjSAhEQ5ZCurqV0vfDq/CVXMU6/S4W/zwE3xF
CJn4layWo+hwiWff9ks5qwoA2VQ+Cg2USMgFD/D63ayKCgwF0n/o/7oHKzXMemsN
cq8vbXra2mYn3GbhEtHX7q3tVU6HScshoEXFtIxiLxSFkD66Bq7ZfztoAo+WaLwg
fzSbAbCjWAfUJjaZ1JtUHmcEWc4MhEN1z2ORCEJ4W4LPAgMBAAGjNzA1MBQGA1Ud
EQQNMAuCCWxvY2FsaG9zdDAdBgNVHQ4EFgQUEq7Qpu0pDaJKGJFtFYwYHB1mqwcw
DQYJKoZIhvcNAQELBQADggEBAIEpspHdz9sUN1s1Gu3J35kfFg7edMK6+pfZaAK+
V+BBMp7Dr6zaSwhBBBoLeKXWKwrHwBdXETmU0UYlBQWRf8QD9rWmB79gd5Pcz5MK
SpQLlQcEzbkp3jr8AAdi/ZxjwQnp2ZAhl1s4dllxux5LpELRXpjYLIGt6it/P6AW
lQhxOWs4sWW7l6Mx+iBpJA9HnYD6OX1qnmyy9zdJiXSYE5olbaykYAlHKQkzZpxC
oY5OylXaswZb/XRNNYBjsf5vd507VIvNZxNrJlDfGrYIXkT+Fp7A21ZGfcDH+AHh
JZ+lSYTKo8quur/XaSrBaTgLQZzvVeHbuxLDvQRDaMW0eSc=
-----END CERTIFICATE-----
