Certificate:
    Data:
        Version: 3 (0x2)
        Serial Number:
            3a:47:6d:48:84:e9:c2:a5:9b:0c:ba:ed:f6:df:83:cc:70:4a:aa:4e
        Signature Algorithm: sha256WithRSAEncryption
        Issuer: CN=dbhost.yourdomain.com
        Validity
            Not Before: May 12 10:25:08 2024 GMT
            Not After : May 12 10:25:08 2025 GMT
        Subject: CN=dbhost.yourdomain.com
        Subject Public Key Info:
            Public Key Algorithm: rsaEncryption
                Public-Key: (2048 bit)
                Modulus:
                    00:b6:9a:8a:1d:1b:a4:9c:af:a0:7a:62:ba:a7:35:
                    ae:09:75:3d:13:eb:e4:5f:05:f6:a7:51:8c:68:9a:
                    99:f2:36:cf:75:14:50:19:37:da:29:db:f4:ff:b4:
                    a6:8a:5c:f0:08:a9:a4:a3:a1:07:76:ff:73:75:51:
                    52:5f:ba:6f:a4:4c:b9:4e:77:d8:c2:1c:57:e5:7b:
                    56:fa:5d:be:1c:36:96:55:ab:73:83:28:3b:f6:ab:
                    10:ab:ad:ad:11:25:f4:8c:14:6f:6e:30:b6:9a:8b:
                    2b:33:85:de:99:03:4e:5d:bd:27:e3:de:aa:67:03:
                    e6:9f:ab:95:7c:95:2f:1a:32:51:5a:bc:66:19:c9:
                    12:47:89:17:55:dc:a4:27:41:54:21:66:ca:da:55:
                    cc:53:60:e9:17:2b:60:9b:77:42:7c:31:0c:26:81:
                    89:a0:f6:44:04:0f:31:0b:a5:ee:da:29:73:c4:b1:
                    1d:8b:cd:7d:ef:cb:e3:5b:6e:d3:48:62:45:31:5e:
                    e0:5a:b0:44:1f:2c:ed:79:e8:ff:19:7b:64:22:1e:
                    30:5a:18:e5:b0:1e:83:e6:76:c3:a8:3a:a9:f5:57:
                    34:a4:4e:ce:89:b7:8f:3a:a0:e5:70:7e:5b:e5:47:
                    cd:0d:39:5a:27:b4:ab:90:38:b4:a7:8d:65:16:98:
                    a1:cd
                Exponent: 65537 (0x10001)
        X509v3 extensions:
            X509v3 Subject Key Identifier: 
                63:76:EF:8D:55:9F:19:3B:3B:39:24:03:91:D0:EA:06:68:3B:86:87
            X509v3 Authority Key Identifier: 
                63:76:EF:8D:55:9F:19:3B:3B:39:24:03:91:D0:EA:06:68:3B:86:87
            X509v3 Basic Constraints: critical
                CA:TRUE
    Signature Algorithm: sha256WithRSAEncryption
    Signature Value:
        00:3c:a8:09:38:24:05:a1:d3:fb:0b:d3:af:fd:a4:e7:c0:2e:
        67:4e:7d:50:b8:6d:5a:89:47:42:1d:01:3a:da:eb:31:94:13:
        e2:e9:2b:76:83:ab:eb:68:8a:bf:4f:4c:0e:3c:4e:fe:95:e3:
        38:e3:50:78:ac:c3:ea:6a:f4:14:f9:7d:48:1d:e1:bc:74:be:
        30:11:b6:bf:72:4c:7e:4f:97:a4:62:6d:8d:61:eb:e6:67:7e:
        27:59:d6:34:46:63:57:64:f9:9a:4d:61:ba:92:d7:b3:13:a3:
        3d:90:de:fc:7e:9b:7f:5c:68:50:8f:05:85:98:a1:f5:2c:e2:
        64:d5:7d:3a:2d:6a:14:ff:39:9e:13:00:85:50:40:d6:b9:71:
        5a:be:b0:53:9e:1f:87:28:29:b1:55:1e:8d:d3:3b:ed:89:62:
        97:f8:7a:58:85:43:4c:ce:02:5e:ba:b5:9c:b1:d1:8c:70:c0:
        91:4c:a7:d7:57:3a:fc:67:ab:0f:ee:2c:0c:39:2e:3c:2f:b0:
        b2:5c:be:68:f1:99:9e:30:3e:c4:ea:c8:24:a7:b5:21:45:2d:
        d1:91:06:6b:cc:c9:85:8e:88:02:bc:7f:48:8c:a4:21:26:ef:
        91:32:f3:f0:39:9e:2c:89:d6:e9:9d:2c:0b:5d:ed:89:49:59:
        5f:4a:2c:b5
-----BEGIN CERTIFICATE-----
MIIDITCCAgmgAwIBAgIUOkdtSITpwqWbDLrt9t+DzHBKqk4wDQYJKoZIhvcNAQEL
BQAwIDEeMBwGA1UEAwwVZGJob3N0LnlvdXJkb21haW4uY29tMB4XDTI0MDUxMjEw
MjUwOFoXDTI1MDUxMjEwMjUwOFowIDEeMBwGA1UEAwwVZGJob3N0LnlvdXJkb21h
aW4uY29tMIIBIjANBgkqhkiG9w0BAQEFAAOCAQ8AMIIBCgKCAQEAtpqKHRuknK+g
emK6pzWuCXU9E+vkXwX2p1GMaJqZ8jbPdRRQGTfaKdv0/7SmilzwCKmko6EHdv9z
dVFSX7pvpEy5TnfYwhxX5XtW+l2+HDaWVatzgyg79qsQq62tESX0jBRvbjC2mosr
M4XemQNOXb0n496qZwPmn6uVfJUvGjJRWrxmGckSR4kXVdykJ0FUIWbK2lXMU2Dp
Fytgm3dCfDEMJoGJoPZEBA8xC6Xu2ilzxLEdi81978vjW27TSGJFMV7gWrBEHyzt
eej/GXtkIh4wWhjlsB6D5nbDqDqp9Vc0pE7OibePOqDlcH5b5UfNDTlaJ7SrkDi0
p41lFpihzQIDAQABo1MwUTAdBgNVHQ4EFgQUY3bvjVWfGTs7OSQDkdDqBmg7hocw
HwYDVR0jBBgwFoAUY3bvjVWfGTs7OSQDkdDqBmg7hocwDwYDVR0TAQH/BAUwAwEB
/zANBgkqhkiG9w0BAQsFAAOCAQEAADyoCTgkBaHT+wvTr/2k58AuZ059ULhtWolH
Qh0BOtrrMZQT4ukrdoOr62iKv09MDjxO/pXjOONQeKzD6mr0FPl9SB3hvHS+MBG2
v3JMfk+XpGJtjWHr5md+J1nWNEZjV2T5mk1hupLXsxOjPZDe/H6bf1xoUI8FhZih
9SziZNV9Oi1qFP85nhMAhVBA1rlxWr6wU54fhygpsVUejdM77Ylil/h6WIVDTM4C
Xrq1nLHRjHDAkUyn11c6/GerD+4sDDkuPC+wsly+aPGZnjA+xOrIJKe1IUUt0ZEG
a8zJhY6IArx/SIykISbvkTLz8DmeLInW6Z0sC13tiUlZX0ostQ==
-----END CERTIFICATE-----
