Certificate Request:
    Data:
        Version: 1 (0x0)
        Subject: CN=root.yourdomain.com
        Subject Public Key Info:
            Public Key Algorithm: rsaEncryption
                Public-Key: (2048 bit)
                Modulus:
                    00:aa:a0:94:1f:70:f4:e4:d8:59:e3:78:53:ff:ef:
                    37:fd:62:4e:49:fa:d1:2a:24:ee:49:e5:30:13:a7:
                    29:12:9b:e1:48:e1:e3:5c:4a:57:96:54:db:93:74:
                    83:5d:3b:cc:cf:d9:57:cf:47:70:6d:bf:54:1c:0e:
                    55:c7:b9:64:b2:5b:9e:98:df:5e:73:75:6c:67:e5:
                    b9:64:13:3f:15:24:4d:82:12:99:c7:6c:9f:07:68:
                    6b:1b:a5:8c:23:2a:3e:eb:05:bd:69:ac:6d:23:81:
                    0b:d2:2b:79:ca:c2:42:04:de:37:ae:a2:48:d9:2a:
                    3b:49:87:f1:f9:91:b8:2b:a8:61:0b:32:78:bd:48:
                    65:08:c4:f2:4f:8e:c0:d4:d9:35:19:84:42:87:21:
                    32:81:01:22:c7:82:ff:6f:29:77:bf:ef:e7:44:38:
                    78:09:14:0b:35:cf:87:7f:bd:17:1c:97:1e:2a:a7:
                    cd:65:5f:7f:3d:3d:30:db:27:52:e8:79:5f:54:ef:
                    11:f1:7d:dd:c2:61:5c:7a:ba:9d:69:0a:75:a5:d4:
                    52:ff:07:a9:d6:e2:57:ad:d4:ad:92:f3:d8:25:1e:
                    91:ec:79:ce:5f:16:80:a3:38:49:3b:f1:63:b3:da:
                    09:66:5d:f1:63:2b:2e:6c:5b:a4:d3:7c:4b:08:a7:
                    06:31
                Exponent: 65537 (0x10001)
        Attributes:
            (none)
            Requested Extensions:
    Signature Algorithm: sha256WithRSAEncryption
    Signature Value:
        67:0b:17:04:18:75:50:7c:06:53:0d:a3:63:41:b6:a1:90:da:
        e0:27:a6:a4:ac:07:0d:e6:35:f0:fa:a9:bc:88:92:b9:8c:cb:
        50:ea:f0:e0:3a:84:bc:c5:8c:6a:59:b3:a8:d2:11:f4:ea:f6:
        a3:c9:e5:02:b8:2c:63:06:43:f5:2a:cc:20:0f:8f:7a:23:88:
        b4:df:21:97:b5:c2:0a:4d:0e:87:e3:e5:b2:9f:91:19:c2:bf:
        69:64:0c:76:1b:37:97:cd:51:f4:a1:6c:4d:7e:06:82:f4:ff:
        f9:77:94:d3:e8:2d:19:b5:88:e2:3f:61:49:5f:24:55:3d:1a:
        80:86:0e:cb:cb:90:84:d7:ba:99:e2:4c:90:c1:b7:24:fa:86:
        3f:26:a0:1f:66:df:38:84:75:c1:78:ce:f1:13:6f:8a:7f:ed:
        16:53:55:d7:33:ec:49:a5:a6:ef:c4:62:35:08:4d:b0:3c:29:
        6f:8b:d2:e8:bd:e2:33:d5:89:b0:58:fa:8a:4b:75:ba:ef:ec:
        aa:84:c6:3c:21:84:a2:8a:b1:6a:2f:0b:1b:8b:84:22:36:67:
        81:0f:73:07:9c:a1:33:8f:ad:c9:dc:03:56:b9:7f:43:8e:88:
        9b:f1:d8:c9:d9:ad:7a:c3:b4:5f:90:48:bc:cf:85:fd:88:17:
        91:70:d5:92
-----BEGIN CERTIFICATE REQUEST-----
MIICYzCCAUsCAQAwHjEcMBoGA1UEAwwTcm9vdC55b3VyZG9tYWluLmNvbTCCASIw
DQYJKoZIhvcNAQEBBQADggEPADCCAQoCggEBAKqglB9w9OTYWeN4U//vN/1iTkn6
0Sok7knlMBOnKRKb4Ujh41xKV5ZU25N0g107zM/ZV89HcG2/VBwOVce5ZLJbnpjf
XnN1bGfluWQTPxUkTYISmcdsnwdoaxuljCMqPusFvWmsbSOBC9IrecrCQgTeN66i
SNkqO0mH8fmRuCuoYQsyeL1IZQjE8k+OwNTZNRmEQochMoEBIseC/28pd7/v50Q4
eAkUCzXPh3+9FxyXHiqnzWVffz09MNsnUuh5X1TvEfF93cJhXHq6nWkKdaXUUv8H
qdbiV63UrZLz2CUekex5zl8WgKM4STvxY7PaCWZd8WMrLmxbpNN8SwinBjECAwEA
AaAAMA0GCSqGSIb3DQEBCwUAA4IBAQBnCxcEGHVQfAZTDaNjQbahkNrgJ6akrAcN
5jXw+qm8iJK5jMtQ6vDgOoS8xYxqWbOo0hH06vajyeUCuCxjBkP1KswgD496I4i0
3yGXtcIKTQ6H4+Wyn5EZwr9pZAx2GzeXzVH0oWxNfgaC9P/5d5TT6C0ZtYjiP2FJ
XyRVPRqAhg7Ly5CE17qZ4kyQwbck+oY/JqAfZt84hHXBeM7xE2+Kf+0WU1XXM+xJ
pabvxGI1CE2wPClvi9LoveIz1YmwWPqKS3W67+yqhMY8IYSiirFqLwsbi4QiNmeB
D3MHnKEzj63J3ANWuX9Djoib8djJ2a16w7RfkEi8z4X9iBeRcNWS
-----END CERTIFICATE REQUEST-----
